; Function Attrs: nounwind uwtable
define ptr @Int2_ManReadInterpolant(ptr noundef captures(none) %0) local_unnamed_addr #0 {
  %2 = getelementptr inbounds nuw i8, ptr %0, i64 504
  %3 = load ptr, ptr %2, align 8, !tbaa !44
  %4 = getelementptr inbounds nuw i8, ptr %3, i64 24
  %5 = load ptr, ptr %4, align 8, !tbaa !23
  store ptr null, ptr %4, align 8, !tbaa !23
  %6 = getelementptr inbounds nuw i8, ptr %0, i64 484
  %7 = load i32, ptr %6, align 4, !tbaa !56
  %8 = icmp eq i32 %7, -1
  br i1 %8, label %81, label %9

9:                                                ; preds = %1
  %10 = tail call fastcc ptr @Gia_ManAppendObj(ptr noundef %5)
  %11 = load i64, ptr %10, align 4
  %12 = or i64 %11, 2147483648
  store i64 %12, ptr %10, align 4
  %13 = getelementptr i8, ptr %5, i64 32
  %.val18.i = load ptr, ptr %13, align 8, !tbaa !42
  %14 = ptrtoint ptr %10 to i64
  %15 = ptrtoint ptr %.val18.i to i64
  %16 = sub i64 %14, %15
  %17 = sdiv exact i64 %16, 12
  %18 = trunc i64 %17 to i32
  %19 = lshr i32 %7, 1
  %20 = sub i32 %18, %19
  %21 = and i32 %20, 536870911
  %22 = zext nneg i32 %21 to i64
  %23 = and i64 %12, -1073741824
  %24 = shl i32 %7, 29
  %25 = and i32 %24, 536870912
  %26 = zext nneg i32 %25 to i64
  %27 = or disjoint i64 %23, %26
  %28 = or disjoint i64 %27, %22
  store i64 %28, ptr %10, align 4
  %29 = getelementptr inbounds nuw i8, ptr %5, i64 72
  %30 = load ptr, ptr %29, align 8, !tbaa !57
  %31 = getelementptr i8, ptr %30, i64 4
  %.val.i = load i32, ptr %31, align 4, !tbaa !11
  %32 = and i32 %.val.i, 536870911
  %33 = zext nneg i32 %32 to i64
  %34 = shl nuw nsw i64 %33, 32
  %35 = and i64 %28, -2305843004918726657
  %36 = or disjoint i64 %35, %34
  store i64 %36, ptr %10, align 4
  %37 = load ptr, ptr %29, align 8, !tbaa !57
  %.val19.i = load ptr, ptr %13, align 8, !tbaa !42
  %38 = ptrtoint ptr %.val19.i to i64
  %39 = sub i64 %14, %38
  %40 = sdiv exact i64 %39, 12
  %41 = trunc i64 %40 to i32
  %42 = getelementptr inbounds nuw i8, ptr %37, i64 4
  %43 = load i32, ptr %42, align 4, !tbaa !11
  %44 = load i32, ptr %37, align 8, !tbaa !15
  %45 = icmp eq i32 %43, %44
  br i1 %45, label %46, label %.Vec_IntGrow.exit10_crit_edge.i.i

.Vec_IntGrow.exit10_crit_edge.i.i:                ; preds = %9
  %.phi.trans.insert.i.i = getelementptr inbounds nuw i8, ptr %37, i64 8
  %.pre.i.i = load ptr, ptr %.phi.trans.insert.i.i, align 8, !tbaa !16
  br label %Vec_IntPush.exit.i

46:                                               ; preds = %9
  %47 = icmp slt i32 %43, 16
  br i1 %47, label %48, label %56

48:                                               ; preds = %46
  %49 = getelementptr inbounds nuw i8, ptr %37, i64 8
  %50 = load ptr, ptr %49, align 8, !tbaa !16
  %.not9.i.i.i = icmp eq ptr %50, null
  br i1 %.not9.i.i.i, label %53, label %51

51:                                               ; preds = %48
  %52 = tail call dereferenceable_or_null(64) ptr @realloc(ptr noundef nonnull %50, i64 noundef 64) #21
  br label %Vec_IntGrow.exit.i.i

53:                                               ; preds = %48
  %54 = tail call noalias dereferenceable_or_null(64) ptr @malloc(i64 noundef 64) #19
  br label %Vec_IntGrow.exit.i.i

Vec_IntGrow.exit.i.i:                             ; preds = %53, %51
  %55 = phi ptr [ %52, %51 ], [ %54, %53 ]
  store ptr %55, ptr %49, align 8, !tbaa !16
  store i32 16, ptr %37, align 8, !tbaa !15
  br label %Vec_IntPush.exit.i

56:                                               ; preds = %46
  %57 = shl nuw nsw i32 %43, 1
  %58 = getelementptr inbounds nuw i8, ptr %37, i64 8
  %59 = load ptr, ptr %58, align 8, !tbaa !16
  %.not9.i9.i.i = icmp eq ptr %59, null
  %60 = zext nneg i32 %57 to i64
  %61 = shl nuw nsw i64 %60, 2
  br i1 %.not9.i9.i.i, label %64, label %62

62:                                               ; preds = %56
  %63 = tail call ptr @realloc(ptr noundef nonnull %59, i64 noundef %61) #21
  br label %66

64:                                               ; preds = %56
  %65 = tail call noalias ptr @malloc(i64 noundef %61) #19
  br label %66

66:                                               ; preds = %64, %62
  %67 = phi ptr [ %63, %62 ], [ %65, %64 ]
  store ptr %67, ptr %58, align 8, !tbaa !16
  store i32 %57, ptr %37, align 8, !tbaa !15
  br label %Vec_IntPush.exit.i

Vec_IntPush.exit.i:                               ; preds = %66, %Vec_IntGrow.exit.i.i, %.Vec_IntGrow.exit10_crit_edge.i.i
  %68 = phi ptr [ %.pre.i.i, %.Vec_IntGrow.exit10_crit_edge.i.i ], [ %67, %66 ], [ %55, %Vec_IntGrow.exit.i.i ]
  %69 = load i32, ptr %42, align 4, !tbaa !11
  %70 = add nsw i32 %69, 1
  store i32 %70, ptr %42, align 4, !tbaa !11
  %71 = sext i32 %69 to i64
  %72 = getelementptr inbounds i32, ptr %68, i64 %71
  store i32 %41, ptr %72, align 4, !tbaa !18
  %73 = getelementptr inbounds nuw i8, ptr %5, i64 232
  %74 = load ptr, ptr %73, align 8, !tbaa !58
  %.not.i = icmp eq ptr %74, null
  br i1 %.not.i, label %Gia_ManAppendCo.exit, label %75

75:                                               ; preds = %Vec_IntPush.exit.i
  %76 = load i64, ptr %10, align 4
  %77 = and i64 %76, 536870911
  %78 = sub nsw i64 0, %77
  %79 = getelementptr inbounds %struct.Gia_Obj_t_, ptr %10, i64 %78
  tail call void @Gia_ObjAddFanout(ptr noundef nonnull %5, ptr noundef nonnull %79, ptr noundef nonnull %10) #20
  br label %Gia_ManAppendCo.exit

Gia_ManAppendCo.exit:                             ; preds = %Vec_IntPush.exit.i, %75
  store i32 -1, ptr %6, align 4, !tbaa !56
  %80 = tail call ptr @Gia_ManCleanup(ptr noundef nonnull %5) #20
  tail call void @Gia_ManStop(ptr noundef nonnull %5) #20
  br label %81

81:                                               ; preds = %1, %Gia_ManAppendCo.exit
  %.0 = phi ptr [ %80, %Gia_ManAppendCo.exit ], [ null, %1 ]
  ret ptr %.0
}